target datalayout = "e-m:e-p270:32:32-p271:32:32-p272:64:64-i64:64-i128:128-f80:128-n8:16:32:64-S128"
target triple = "x86_64-pc-linux-gnu"

%struct.ma_allocation_callbacks = type { ptr, ptr, ptr, ptr }

; Function Attrs: nounwind uwtable
define internal ptr @ma__malloc_default(i64 noundef %0, ptr noundef %1) #0 {
  %3 = alloca i64, align 8
  %4 = alloca ptr, align 8
  store i64 %0, ptr %3, align 8
  store ptr %1, ptr %4, align 8
  %5 = load i64, ptr %3, align 8
  %6 = call noalias ptr @malloc(i64 noundef %5) #27
  ret ptr %6
}

; Function Attrs: nounwind uwtable
define hidden ptr @ma_malloc(i64 noundef %0, ptr noundef %1) #0 {
  %3 = alloca ptr, align 8
  %4 = alloca i64, align 8
  %5 = alloca ptr, align 8
  store i64 %0, ptr %4, align 8
  store ptr %1, ptr %5, align 8
  %6 = load ptr, ptr %5, align 8
  %7 = icmp ne ptr %6, null
  br i1 %7, label %8, label %23

8:                                                ; preds = %2
  %9 = load ptr, ptr %5, align 8
  %10 = getelementptr inbounds nuw %struct.ma_allocation_callbacks, ptr %9, i32 0, i32 1
  %11 = load ptr, ptr %10, align 8
  %12 = icmp ne ptr %11, null
  br i1 %12, label %13, label %22

13:                                               ; preds = %8
  %14 = load ptr, ptr %5, align 8
  %15 = getelementptr inbounds nuw %struct.ma_allocation_callbacks, ptr %14, i32 0, i32 1
  %16 = load ptr, ptr %15, align 8
  %17 = load i64, ptr %4, align 8
  %18 = load ptr, ptr %5, align 8
  %19 = getelementptr inbounds nuw %struct.ma_allocation_callbacks, ptr %18, i32 0, i32 0
  %20 = load ptr, ptr %19, align 8
  %21 = call ptr %16(i64 noundef %17, ptr noundef %20)
  store ptr %21, ptr %3, align 8
  br label %26

22:                                               ; preds = %8
  store ptr null, ptr %3, align 8
  br label %26

23:                                               ; preds = %2
  %24 = load i64, ptr %4, align 8
  %25 = call ptr @ma__malloc_default(i64 noundef %24, ptr noundef null)
  store ptr %25, ptr %3, align 8
  br label %26

26:                                               ; preds = %23, %22, %13
  %27 = load ptr, ptr %3, align 8
  ret ptr %27
}