; Function Attrs: nounwind uwtable
define hidden ptr @ma_malloc(i64 noundef %0, ptr noundef readonly captures(address_is_null) %1) local_unnamed_addr #7 {
  %.not = icmp eq ptr %1, null
  br i1 %.not, label %9, label %3

3:                                                ; preds = %2
  %4 = getelementptr inbounds nuw i8, ptr %1, i64 8
  %5 = load ptr, ptr %4, align 8
  %.not8 = icmp eq ptr %5, null
  br i1 %.not8, label %11, label %6

6:                                                ; preds = %3
  %7 = load ptr, ptr %1, align 8
  %8 = tail call ptr %5(i64 noundef %0, ptr noundef %7) #72
  br label %11

9:                                                ; preds = %2
  %10 = tail call noalias noundef ptr @malloc(i64 noundef %0) #85
  br label %11

11:                                               ; preds = %3, %9, %6
  %.0 = phi ptr [ %8, %6 ], [ %10, %9 ], [ null, %3 ]
  ret ptr %.0
}